; Function Attrs: mustprogress nofree norecurse nosync nounwind willreturn memory(read, inaccessiblemem: none) uwtable
define hidden noundef zeroext i1 @_ZNK19OpenColorIO_v2_4dev9CDLOpData10isIdentityEv(ptr nocapture noundef nonnull readonly align 8 dereferenceable(256) %this) unnamed_addr #10 align 2 {
entry:
  %m_slopeParams = getelementptr inbounds i8, ptr %this, i64 176
  %0 = load double, ptr %m_slopeParams, align 8
  %1 = load double, ptr @_ZN19OpenColorIO_v2_4devL10kOneParamsE.0, align 8
  %cmp.i.i = fcmp ogt double %0, %1
  %sub.i.i = fsub double %0, %1
  %sub1.i.i = fsub double %1, %0
  %cond.i.i = select i1 %cmp.i.i, double %sub.i.i, double %sub1.i.i
  %cmp2.i.i = fcmp ugt double %cond.i.i, 1.000000e-09
  br i1 %cmp2.i.i, label %land.end, label %land.lhs.true.i

land.lhs.true.i:                                  ; preds = %entry
  %arrayidx5.i = getelementptr inbounds i8, ptr %this, i64 184
  %2 = load double, ptr %arrayidx5.i, align 8
  %3 = load double, ptr @_ZN19OpenColorIO_v2_4devL10kOneParamsE.1, align 8
  %cmp.i3.i = fcmp ogt double %2, %3
  %sub.i4.i = fsub double %2, %3
  %sub1.i5.i = fsub double %3, %2
  %cond.i6.i = select i1 %cmp.i3.i, double %sub.i4.i, double %sub1.i5.i
  %cmp2.i7.i = fcmp ugt double %cond.i6.i, 1.000000e-09
  br i1 %cmp2.i7.i, label %land.end, label %_ZNK19OpenColorIO_v2_4dev9CDLOpData13ChannelParamseqERKS1_.exit

_ZNK19OpenColorIO_v2_4dev9CDLOpData13ChannelParamseqERKS1_.exit: ; preds = %land.lhs.true.i
  %arrayidx10.i = getelementptr inbounds i8, ptr %this, i64 192
  %4 = load double, ptr %arrayidx10.i, align 8
  %5 = load double, ptr @_ZN19OpenColorIO_v2_4devL10kOneParamsE.2, align 8
  %cmp.i8.i = fcmp ogt double %4, %5
  %sub.i9.i = fsub double %4, %5
  %sub1.i10.i = fsub double %5, %4
  %cond.i11.i = select i1 %cmp.i8.i, double %sub.i9.i, double %sub1.i10.i
  %cmp2.i12.i = fcmp ugt double %cond.i11.i, 1.000000e-09
  br i1 %cmp2.i12.i, label %land.end, label %land.lhs.true

land.lhs.true:                                    ; preds = %_ZNK19OpenColorIO_v2_4dev9CDLOpData13ChannelParamseqERKS1_.exit
  %m_offsetParams = getelementptr inbounds i8, ptr %this, i64 200
  %6 = load double, ptr %m_offsetParams, align 8
  %7 = load double, ptr @_ZN19OpenColorIO_v2_4devL11kZeroParamsE, align 8
  %cmp.i.i1 = fcmp ogt double %6, %7
  %sub.i.i2 = fsub double %6, %7
  %sub1.i.i3 = fsub double %7, %6
  %cond.i.i4 = select i1 %cmp.i.i1, double %sub.i.i2, double %sub1.i.i3
  %cmp2.i.i5 = fcmp ugt double %cond.i.i4, 1.000000e-09
  br i1 %cmp2.i.i5, label %land.end, label %land.lhs.true.i6

land.lhs.true.i6:                                 ; preds = %land.lhs.true
  %arrayidx5.i7 = getelementptr inbounds i8, ptr %this, i64 208
  %8 = load double, ptr %arrayidx5.i7, align 8
  %9 = load double, ptr getelementptr inbounds (%"struct.OpenColorIO_v2_4dev::CDLOpData::ChannelParams", ptr @_ZN19OpenColorIO_v2_4devL11kZeroParamsE, i64 0, i32 0, i64 1), align 8
  %cmp.i3.i8 = fcmp ogt double %8, %9
  %sub.i4.i9 = fsub double %8, %9
  %sub1.i5.i10 = fsub double %9, %8
  %cond.i6.i11 = select i1 %cmp.i3.i8, double %sub.i4.i9, double %sub1.i5.i10
  %cmp2.i7.i12 = fcmp ugt double %cond.i6.i11, 1.000000e-09
  br i1 %cmp2.i7.i12, label %land.end, label %_ZNK19OpenColorIO_v2_4dev9CDLOpData13ChannelParamseqERKS1_.exit20

_ZNK19OpenColorIO_v2_4dev9CDLOpData13ChannelParamseqERKS1_.exit20: ; preds = %land.lhs.true.i6
  %arrayidx10.i14 = getelementptr inbounds i8, ptr %this, i64 216
  %10 = load double, ptr %arrayidx10.i14, align 8
  %11 = load double, ptr getelementptr inbounds (%"struct.OpenColorIO_v2_4dev::CDLOpData::ChannelParams", ptr @_ZN19OpenColorIO_v2_4devL11kZeroParamsE, i64 0, i32 0, i64 2), align 8
  %cmp.i8.i15 = fcmp ogt double %10, %11
  %sub.i9.i16 = fsub double %10, %11
  %sub1.i10.i17 = fsub double %11, %10
  %cond.i11.i18 = select i1 %cmp.i8.i15, double %sub.i9.i16, double %sub1.i10.i17
  %cmp2.i12.i19 = fcmp ugt double %cond.i11.i18, 1.000000e-09
  br i1 %cmp2.i12.i19, label %land.end, label %land.lhs.true3

land.lhs.true3:                                   ; preds = %_ZNK19OpenColorIO_v2_4dev9CDLOpData13ChannelParamseqERKS1_.exit20
  %m_powerParams = getelementptr inbounds i8, ptr %this, i64 224
  %12 = load double, ptr %m_powerParams, align 8
  %cmp.i.i21 = fcmp ogt double %12, %1
  %sub.i.i22 = fsub double %12, %1
  %sub1.i.i23 = fsub double %1, %12
  %cond.i.i24 = select i1 %cmp.i.i21, double %sub.i.i22, double %sub1.i.i23
  %cmp2.i.i25 = fcmp ugt double %cond.i.i24, 1.000000e-09
  br i1 %cmp2.i.i25, label %land.end, label %land.lhs.true.i26

land.lhs.true.i26:                                ; preds = %land.lhs.true3
  %arrayidx5.i27 = getelementptr inbounds i8, ptr %this, i64 232
  %13 = load double, ptr %arrayidx5.i27, align 8
  %cmp.i3.i28 = fcmp ogt double %13, %3
  %sub.i4.i29 = fsub double %13, %3
  %sub1.i5.i30 = fsub double %3, %13
  %cond.i6.i31 = select i1 %cmp.i3.i28, double %sub.i4.i29, double %sub1.i5.i30
  %cmp2.i7.i32 = fcmp ugt double %cond.i6.i31, 1.000000e-09
  br i1 %cmp2.i7.i32, label %land.end, label %_ZNK19OpenColorIO_v2_4dev9CDLOpData13ChannelParamseqERKS1_.exit40

_ZNK19OpenColorIO_v2_4dev9CDLOpData13ChannelParamseqERKS1_.exit40: ; preds = %land.lhs.true.i26
  %arrayidx10.i34 = getelementptr inbounds i8, ptr %this, i64 240
  %14 = load double, ptr %arrayidx10.i34, align 8
  %cmp.i8.i35 = fcmp ogt double %14, %5
  %sub.i9.i36 = fsub double %14, %5
  %sub1.i10.i37 = fsub double %5, %14
  %cond.i11.i38 = select i1 %cmp.i8.i35, double %sub.i9.i36, double %sub1.i10.i37
  %cmp2.i12.i39 = fcmp ugt double %cond.i11.i38, 1.000000e-09
  br i1 %cmp2.i12.i39, label %land.end, label %land.rhs

land.rhs:                                         ; preds = %_ZNK19OpenColorIO_v2_4dev9CDLOpData13ChannelParamseqERKS1_.exit40
  %m_saturation = getelementptr inbounds i8, ptr %this, i64 248
  %15 = load double, ptr %m_saturation, align 8
  %cmp = fcmp oeq double %15, 1.000000e+00
  br label %land.end

land.end:                                         ; preds = %land.lhs.true3, %land.lhs.true.i26, %land.lhs.true, %land.lhs.true.i6, %entry, %land.lhs.true.i, %land.rhs, %_ZNK19OpenColorIO_v2_4dev9CDLOpData13ChannelParamseqERKS1_.exit40, %_ZNK19OpenColorIO_v2_4dev9CDLOpData13ChannelParamseqERKS1_.exit20, %_ZNK19OpenColorIO_v2_4dev9CDLOpData13ChannelParamseqERKS1_.exit
  %16 = phi i1 [ false, %_ZNK19OpenColorIO_v2_4dev9CDLOpData13ChannelParamseqERKS1_.exit40 ], [ false, %_ZNK19OpenColorIO_v2_4dev9CDLOpData13ChannelParamseqERKS1_.exit20 ], [ false, %_ZNK19OpenColorIO_v2_4dev9CDLOpData13ChannelParamseqERKS1_.exit ], [ %cmp, %land.rhs ], [ false, %land.lhs.true.i ], [ false, %entry ], [ false, %land.lhs.true.i6 ], [ false, %land.lhs.true ], [ false, %land.lhs.true.i26 ], [ false, %land.lhs.true3 ]
  ret i1 %16
}